; Function Attrs: mustprogress nounwind uwtable
define internal fastcc void @_ZN12_GLOBAL__N_120DOCTEST_ANON_CLASS_3D2Ev(ptr noundef nonnull align 8 dereferenceable(1128) %0) unnamed_addr #4 align 2 personality ptr @__gxx_personality_v0 {
  %2 = getelementptr inbounds nuw i8, ptr %0, i64 1104
  %3 = load ptr, ptr %2, align 8
  %.not.i.i.i.i.i = icmp eq ptr %3, null
  br i1 %.not.i.i.i.i.i, label %_ZN20IrRegAllocX64FixtureD2Ev.exit, label %4

4:                                                ; preds = %1
  %5 = getelementptr inbounds nuw i8, ptr %0, i64 1120
  %6 = load ptr, ptr %5, align 8
  %7 = ptrtoint ptr %6 to i64
  %8 = ptrtoint ptr %3 to i64
  %9 = sub i64 %7, %8
  tail call void @_ZdlPvm(ptr noundef nonnull %3, i64 noundef %9) #20
  br label %_ZN20IrRegAllocX64FixtureD2Ev.exit

_ZN20IrRegAllocX64FixtureD2Ev.exit:               ; preds = %1, %4
  %10 = getelementptr inbounds nuw i8, ptr %0, i64 256
  tail call void @_ZN4Luau7CodeGen10IrFunctionD2Ev(ptr noundef nonnull align 8 dereferenceable(616) %10) #18
  tail call void @_ZN4Luau7CodeGen3X6418AssemblyBuilderX64D1Ev(ptr noundef nonnull align 8 dereferenceable(1128) %0) #18
  ret void
}